target datalayout = "e-m:e-p270:32:32-p271:32:32-p272:64:64-i64:64-i128:128-f80:128-n8:16:32:64-S128"
target triple = "x86_64-unknown-linux-gnu"

%"class.QuantLib::FdmLinearOpLayout" = type { i64, %"class.std::vector", %"class.std::vector" }
%"class.std::vector" = type { %"struct.std::_Vector_base" }
%"struct.std::_Vector_base" = type { %"struct.std::_Vector_base<unsigned long, std::allocator<unsigned long>>::_Vector_impl" }
%"struct.std::_Vector_base<unsigned long, std::allocator<unsigned long>>::_Vector_impl" = type { %"struct.std::_Vector_base<unsigned long, std::allocator<unsigned long>>::_Vector_impl_data" }
%"struct.std::_Vector_base<unsigned long, std::allocator<unsigned long>>::_Vector_impl_data" = type { ptr, ptr, ptr }
%"class.QuantLib::FdmLinearOpIterator" = type { i64, %"class.std::vector", %"class.std::vector" }

; Function Attrs: mustprogress nounwind uwtable
define linkonce_odr noundef nonnull align 8 dereferenceable(8) ptr @_ZNKSt6vectorImSaImEEixEm(ptr noundef nonnull align 8 dereferenceable(24) %this, i64 noundef %__n) #2 comdat align 2 {
entry:
  %this.addr = alloca ptr, align 8
  %__n.addr = alloca i64, align 8
  store ptr %this, ptr %this.addr, align 8, !tbaa !3
  store i64 %__n, ptr %__n.addr, align 8, !tbaa !7
  %this1 = load ptr, ptr %this.addr, align 8
  %_M_impl = getelementptr inbounds nuw %"struct.std::_Vector_base", ptr %this1, i32 0, i32 0
  %_M_start = getelementptr inbounds nuw %"struct.std::_Vector_base<unsigned long, std::allocator<unsigned long>>::_Vector_impl_data", ptr %_M_impl, i32 0, i32 0
  %0 = load ptr, ptr %_M_start, align 8, !tbaa !17
  %1 = load i64, ptr %__n.addr, align 8, !tbaa !7
  %add.ptr = getelementptr inbounds nuw i64, ptr %0, i64 %1
  ret ptr %add.ptr
}

; Function Attrs: mustprogress nounwind uwtable
define linkonce_odr noundef nonnull align 8 dereferenceable(24) ptr @_ZNK8QuantLib19FdmLinearOpIterator11coordinatesEv(ptr noundef nonnull align 8 dereferenceable(56) %this) #2 comdat align 2 {
entry:
  %this.addr = alloca ptr, align 8
  store ptr %this, ptr %this.addr, align 8, !tbaa !3
  %this1 = load ptr, ptr %this.addr, align 8
  %coordinates_ = getelementptr inbounds nuw %"class.QuantLib::FdmLinearOpIterator", ptr %this1, i32 0, i32 2
  ret ptr %coordinates_
}

; Function Attrs: mustprogress nounwind uwtable
define linkonce_odr noundef i64 @_ZNK8QuantLib19FdmLinearOpIterator5indexEv(ptr noundef nonnull align 8 dereferenceable(56) %this) #2 comdat align 2 {
entry:
  %this.addr = alloca ptr, align 8
  store ptr %this, ptr %this.addr, align 8, !tbaa !3
  %this1 = load ptr, ptr %this.addr, align 8
  %index_ = getelementptr inbounds nuw %"class.QuantLib::FdmLinearOpIterator", ptr %this1, i32 0, i32 0
  %0 = load i64, ptr %index_, align 8, !tbaa !11
  ret i64 %0
}

; Function Attrs: mustprogress uwtable
define noundef i64 @_ZNK8QuantLib17FdmLinearOpLayout13neighbourhoodERKNS_19FdmLinearOpIteratorEmi(ptr noundef nonnull align 8 dereferenceable(56) %this, ptr noundef nonnull align 8 dereferenceable(56) %iterator, i64 noundef %i, i32 noundef %offset) #0 align 2 {
entry:
  %this.addr = alloca ptr, align 8
  %iterator.addr = alloca ptr, align 8
  %i.addr = alloca i64, align 8
  %offset.addr = alloca i32, align 4
  %myIndex = alloca i64, align 8
  %coorOffset = alloca i32, align 4
  store ptr %this, ptr %this.addr, align 8, !tbaa !3
  store ptr %iterator, ptr %iterator.addr, align 8, !tbaa !3
  store i64 %i, ptr %i.addr, align 8, !tbaa !7
  store i32 %offset, ptr %offset.addr, align 4, !tbaa !9
  %this1 = load ptr, ptr %this.addr, align 8
  call void @llvm.lifetime.start.p0(i64 8, ptr %myIndex) #11
  %0 = load ptr, ptr %iterator.addr, align 8, !tbaa !3
  %call = call noundef i64 @_ZNK8QuantLib19FdmLinearOpIterator5indexEv(ptr noundef nonnull align 8 dereferenceable(56) %0)
  %1 = load ptr, ptr %iterator.addr, align 8, !tbaa !3
  %call2 = call noundef nonnull align 8 dereferenceable(24) ptr @_ZNK8QuantLib19FdmLinearOpIterator11coordinatesEv(ptr noundef nonnull align 8 dereferenceable(56) %1)
  %2 = load i64, ptr %i.addr, align 8, !tbaa !7
  %call3 = call noundef nonnull align 8 dereferenceable(8) ptr @_ZNKSt6vectorImSaImEEixEm(ptr noundef nonnull align 8 dereferenceable(24) %call2, i64 noundef %2) #11
  %3 = load i64, ptr %call3, align 8, !tbaa !7
  %spacing_ = getelementptr inbounds nuw %"class.QuantLib::FdmLinearOpLayout", ptr %this1, i32 0, i32 2
  %4 = load i64, ptr %i.addr, align 8, !tbaa !7
  %call4 = call noundef nonnull align 8 dereferenceable(8) ptr @_ZNKSt6vectorImSaImEEixEm(ptr noundef nonnull align 8 dereferenceable(24) %spacing_, i64 noundef %4) #11
  %5 = load i64, ptr %call4, align 8, !tbaa !7
  %mul = mul i64 %3, %5
  %sub = sub i64 %call, %mul
  store i64 %sub, ptr %myIndex, align 8, !tbaa !7
  call void @llvm.lifetime.start.p0(i64 4, ptr %coorOffset) #11
  %6 = load ptr, ptr %iterator.addr, align 8, !tbaa !3
  %call5 = call noundef nonnull align 8 dereferenceable(24) ptr @_ZNK8QuantLib19FdmLinearOpIterator11coordinatesEv(ptr noundef nonnull align 8 dereferenceable(56) %6)
  %7 = load i64, ptr %i.addr, align 8, !tbaa !7
  %call6 = call noundef nonnull align 8 dereferenceable(8) ptr @_ZNKSt6vectorImSaImEEixEm(ptr noundef nonnull align 8 dereferenceable(24) %call5, i64 noundef %7) #11
  %8 = load i64, ptr %call6, align 8, !tbaa !7
  %conv = trunc i64 %8 to i32
  %9 = load i32, ptr %offset.addr, align 4, !tbaa !9
  %add = add nsw i32 %conv, %9
  store i32 %add, ptr %coorOffset, align 4, !tbaa !9
  %10 = load i32, ptr %coorOffset, align 4, !tbaa !9
  %cmp = icmp slt i32 %10, 0
  br i1 %cmp, label %if.then, label %if.else

if.then:                                          ; preds = %entry
  %11 = load i32, ptr %coorOffset, align 4, !tbaa !9
  %sub7 = sub nsw i32 0, %11
  store i32 %sub7, ptr %coorOffset, align 4, !tbaa !9
  br label %if.end19

if.else:                                          ; preds = %entry
  %12 = load i32, ptr %coorOffset, align 4, !tbaa !9
  %conv8 = sext i32 %12 to i64
  %dim_ = getelementptr inbounds nuw %"class.QuantLib::FdmLinearOpLayout", ptr %this1, i32 0, i32 1
  %13 = load i64, ptr %i.addr, align 8, !tbaa !7
  %call9 = call noundef nonnull align 8 dereferenceable(8) ptr @_ZNKSt6vectorImSaImEEixEm(ptr noundef nonnull align 8 dereferenceable(24) %dim_, i64 noundef %13) #11
  %14 = load i64, ptr %call9, align 8, !tbaa !7
  %cmp10 = icmp uge i64 %conv8, %14
  br i1 %cmp10, label %if.then11, label %if.end

if.then11:                                        ; preds = %if.else
  %dim_12 = getelementptr inbounds nuw %"class.QuantLib::FdmLinearOpLayout", ptr %this1, i32 0, i32 1
  %15 = load i64, ptr %i.addr, align 8, !tbaa !7
  %call13 = call noundef nonnull align 8 dereferenceable(8) ptr @_ZNKSt6vectorImSaImEEixEm(ptr noundef nonnull align 8 dereferenceable(24) %dim_12, i64 noundef %15) #11
  %16 = load i64, ptr %call13, align 8, !tbaa !7
  %sub14 = sub i64 %16, 1
  %mul15 = mul i64 2, %sub14
  %17 = load i32, ptr %coorOffset, align 4, !tbaa !9
  %conv16 = sext i32 %17 to i64
  %sub17 = sub i64 %mul15, %conv16
  %conv18 = trunc i64 %sub17 to i32
  store i32 %conv18, ptr %coorOffset, align 4, !tbaa !9
  br label %if.end

if.end:                                           ; preds = %if.then11, %if.else
  br label %if.end19

if.end19:                                         ; preds = %if.end, %if.then
  %18 = load i64, ptr %myIndex, align 8, !tbaa !7
  %19 = load i32, ptr %coorOffset, align 4, !tbaa !9
  %conv20 = sext i32 %19 to i64
  %spacing_21 = getelementptr inbounds nuw %"class.QuantLib::FdmLinearOpLayout", ptr %this1, i32 0, i32 2
  %20 = load i64, ptr %i.addr, align 8, !tbaa !7
  %call22 = call noundef nonnull align 8 dereferenceable(8) ptr @_ZNKSt6vectorImSaImEEixEm(ptr noundef nonnull align 8 dereferenceable(24) %spacing_21, i64 noundef %20) #11
  %21 = load i64, ptr %call22, align 8, !tbaa !7
  %mul23 = mul i64 %conv20, %21
  %add24 = add i64 %18, %mul23
  call void @llvm.lifetime.end.p0(i64 4, ptr %coorOffset) #11
  call void @llvm.lifetime.end.p0(i64 8, ptr %myIndex) #11
  ret i64 %add24
}