; Function Attrs: mustprogress nofree norecurse nosync nounwind willreturn memory(read, inaccessiblemem: none) uwtable
define noundef i64 @_ZNK8QuantLib17FdmLinearOpLayout13neighbourhoodERKNS_19FdmLinearOpIteratorEmi(ptr nocapture noundef nonnull readonly align 8 dereferenceable(56) %this, ptr nocapture noundef nonnull readonly align 8 dereferenceable(56) %iterator, i64 noundef %i, i32 noundef %offset) local_unnamed_addr #0 align 2 {
entry:
  %0 = load i64, ptr %iterator, align 8, !tbaa !3
  %coordinates_.i = getelementptr inbounds nuw i8, ptr %iterator, i64 32
  %1 = load ptr, ptr %coordinates_.i, align 8, !tbaa !13
  %add.ptr.i = getelementptr inbounds nuw i64, ptr %1, i64 %i
  %2 = load i64, ptr %add.ptr.i, align 8, !tbaa !14
  %spacing_ = getelementptr inbounds nuw i8, ptr %this, i64 32
  %3 = load ptr, ptr %spacing_, align 8, !tbaa !13
  %add.ptr.i12 = getelementptr inbounds nuw i64, ptr %3, i64 %i
  %4 = load i64, ptr %add.ptr.i12, align 8, !tbaa !14
  %conv = trunc i64 %2 to i32
  %add = add nsw i32 %offset, %conv
  %sub7 = sub i32 0, %add
  %cmp = icmp slt i32 %add, 0
  br i1 %cmp, label %if.end19, label %if.else

if.else:                                          ; preds = %entry
  %conv8 = zext nneg i32 %add to i64
  %dim_ = getelementptr inbounds nuw i8, ptr %this, i64 8
  %5 = load ptr, ptr %dim_, align 8, !tbaa !13
  %add.ptr.i15 = getelementptr inbounds nuw i64, ptr %5, i64 %i
  %6 = load i64, ptr %add.ptr.i15, align 8, !tbaa !14
  %cmp10.not = icmp ugt i64 %6, %conv8
  br i1 %cmp10.not, label %if.end19, label %if.then11

if.then11:                                        ; preds = %if.else
  %.tr = trunc i64 %6 to i32
  %7 = shl nuw i32 %.tr, 1
  %reass.sub = sub i32 %7, %add
  %conv18 = add i32 %reass.sub, -2
  br label %if.end19

if.end19:                                         ; preds = %entry, %if.else, %if.then11
  %coorOffset.0 = phi i32 [ %conv18, %if.then11 ], [ %add, %if.else ], [ %sub7, %entry ]
  %conv20 = sext i32 %coorOffset.0 to i64
  %reass.add = sub i64 %conv20, %2
  %reass.mul = mul i64 %reass.add, %4
  %add24 = add i64 %reass.mul, %0
  ret i64 %add24
}